target datalayout = "e-m:e-p270:32:32-p271:32:32-p272:64:64-i64:64-i128:128-f80:128-n8:16:32:64-S128"
target triple = "x86_64-pc-linux-gnu"

%struct.expert_field = type { i32, i32 }

@ei_gtpv2_ie_data_not_dissected = internal global %struct.expert_field zeroinitializer, align 4
@hf_gtpv2_ie_up_security_policy_up_ip_policy = internal global i32 0, align 4
@hf_gtpv2_ie_up_security_policy_spare = internal global i32 0, align 4

; Function Attrs: null_pointer_is_valid sspstrong uwtable
define internal void @dissect_gtpv2_ie_up_security_policy(ptr noundef %0, ptr noundef %1, ptr noundef %2, ptr noundef %3, i16 noundef zeroext %4, i8 noundef zeroext %5, i8 noundef zeroext %6, ptr noundef %7) #1 {
  %9 = alloca ptr, align 8
  %10 = alloca ptr, align 8
  %11 = alloca ptr, align 8
  %12 = alloca ptr, align 8
  %13 = alloca i16, align 2
  %14 = alloca i8, align 1
  %15 = alloca i8, align 1
  %16 = alloca ptr, align 8
  store ptr %0, ptr %9, align 8
  store ptr %1, ptr %10, align 8
  store ptr %2, ptr %11, align 8
  store ptr %3, ptr %12, align 8
  store i16 %4, ptr %13, align 2
  store i8 %5, ptr %14, align 1
  store i8 %6, ptr %15, align 1
  store ptr %7, ptr %16, align 8
  %17 = load ptr, ptr %11, align 8
  %18 = load i32, ptr @hf_gtpv2_ie_up_security_policy_spare, align 4
  %19 = load ptr, ptr %9, align 8
  %20 = call ptr @proto_tree_add_item(ptr noundef %17, i32 noundef %18, ptr noundef %19, i32 noundef 0, i32 noundef 1, i32 noundef 0)
  %21 = load ptr, ptr %11, align 8
  %22 = load i32, ptr @hf_gtpv2_ie_up_security_policy_up_ip_policy, align 4
  %23 = load ptr, ptr %9, align 8
  %24 = call ptr @proto_tree_add_item(ptr noundef %21, i32 noundef %22, ptr noundef %23, i32 noundef 0, i32 noundef 1, i32 noundef 0)
  %25 = load i16, ptr %13, align 2
  %26 = zext i16 %25 to i32
  %27 = icmp sgt i32 %26, 2
  br i1 %27, label %28, label %36

28:                                               ; preds = %8
  %29 = load ptr, ptr %11, align 8
  %30 = load ptr, ptr %10, align 8
  %31 = load ptr, ptr %9, align 8
  %32 = load i16, ptr %13, align 2
  %33 = zext i16 %32 to i32
  %34 = sub i32 %33, 2
  %35 = call ptr @proto_tree_add_expert(ptr noundef %29, ptr noundef %30, ptr noundef @ei_gtpv2_ie_data_not_dissected, ptr noundef %31, i32 noundef 1, i32 noundef %34)
  br label %36

36:                                               ; preds = %28, %8
  ret void
}