; Function Attrs: null_pointer_is_valid sspstrong uwtable
define internal void @dissect_gtpv2_ie_up_security_policy(ptr noundef %0, ptr noundef %1, ptr noundef %2, ptr readnone captures(none) %3, i16 noundef zeroext %4, i8 zeroext %5, i8 zeroext %6, ptr readnone captures(none) %7) #1 {
  %9 = load i32, ptr @hf_gtpv2_ie_up_security_policy_spare, align 4
  %10 = tail call ptr @proto_tree_add_item(ptr noundef %2, i32 noundef %9, ptr noundef %0, i32 noundef 0, i32 noundef 1, i32 noundef 0)
  %11 = load i32, ptr @hf_gtpv2_ie_up_security_policy_up_ip_policy, align 4
  %12 = tail call ptr @proto_tree_add_item(ptr noundef %2, i32 noundef %11, ptr noundef %0, i32 noundef 0, i32 noundef 1, i32 noundef 0)
  %13 = icmp ugt i16 %4, 2
  br i1 %13, label %14, label %18

14:                                               ; preds = %8
  %15 = zext i16 %4 to i32
  %16 = add nsw i32 %15, -2
  %17 = tail call ptr @proto_tree_add_expert(ptr noundef %2, ptr noundef %1, ptr noundef nonnull @ei_gtpv2_ie_data_not_dissected, ptr noundef %0, i32 noundef 1, i32 noundef %16)
  br label %18

18:                                               ; preds = %14, %8
  ret void
}